target datalayout = "e-m:e-p270:32:32-p271:32:32-p272:64:64-i64:64-i128:128-f80:128-n8:16:32:64-S128"
target triple = "x86_64-pc-linux-gnu"

%struct.SDL_PathInfo = type { i32, i64, i64, i64, i64 }
%struct.GlobDirCallbackData = type { ptr, ptr, i32, i32, ptr, ptr, ptr, i64, ptr }

@.str.6 = private unnamed_addr constant [5 x i8] c"%s%s\00", align 1

; Function Attrs: nounwind uwtable
define internal i32 @GlobDirectoryCallback(ptr noundef %0, ptr noundef %1, ptr noundef %2) #0 {
  %4 = alloca i32, align 4
  %5 = alloca ptr, align 8
  %6 = alloca ptr, align 8
  %7 = alloca ptr, align 8
  %8 = alloca ptr, align 8
  %9 = alloca ptr, align 8
  %10 = alloca i32, align 4
  %11 = alloca ptr, align 8
  %12 = alloca i8, align 1
  %13 = alloca i8, align 1
  %14 = alloca ptr, align 8
  %15 = alloca i64, align 8
  %16 = alloca i32, align 4
  %17 = alloca %struct.SDL_PathInfo, align 8
  store ptr %0, ptr %5, align 8
  store ptr %1, ptr %6, align 8
  store ptr %2, ptr %7, align 8
  br label %18

18:                                               ; preds = %3
  br label %19

19:                                               ; preds = %18
  br label %20

20:                                               ; preds = %19
  br label %21

21:                                               ; preds = %20
  br label %22

22:                                               ; preds = %21
  br label %23

23:                                               ; preds = %22
  call void @llvm.lifetime.start.p0(i64 8, ptr %8) #5
  %24 = load ptr, ptr %5, align 8
  store ptr %24, ptr %8, align 8
  call void @llvm.lifetime.start.p0(i64 8, ptr %9) #5
  store ptr null, ptr %9, align 8
  %25 = load ptr, ptr %6, align 8
  %26 = load ptr, ptr %7, align 8
  %27 = call i32 (ptr, ptr, ...) @SDL_asprintf_REAL(ptr noundef %9, ptr noundef @.str.6, ptr noundef %25, ptr noundef %26)
  %28 = icmp slt i32 %27, 0
  br i1 %28, label %29, label %30

29:                                               ; preds = %23
  store i32 2, ptr %4, align 4
  store i32 1, ptr %10, align 4
  br label %128

30:                                               ; preds = %23
  call void @llvm.lifetime.start.p0(i64 8, ptr %11) #5
  store ptr null, ptr %11, align 8
  %31 = load ptr, ptr %8, align 8
  %32 = getelementptr inbounds nuw %struct.GlobDirCallbackData, ptr %31, i32 0, i32 3
  %33 = load i32, ptr %32, align 4
  %34 = and i32 %33, 1
  %35 = icmp ne i32 %34, 0
  br i1 %35, label %36, label %43

36:                                               ; preds = %30
  %37 = load ptr, ptr %9, align 8
  %38 = call ptr @CaseFoldUtf8String(ptr noundef %37)
  store ptr %38, ptr %11, align 8
  %39 = load ptr, ptr %11, align 8
  %40 = icmp ne ptr %39, null
  br i1 %40, label %42, label %41

41:                                               ; preds = %36
  store i32 2, ptr %4, align 4
  store i32 1, ptr %10, align 4
  br label %127

42:                                               ; preds = %36
  br label %43

43:                                               ; preds = %42, %30
  call void @llvm.lifetime.start.p0(i64 1, ptr %12) #5
  store i8 0, ptr %12, align 1
  call void @llvm.lifetime.start.p0(i64 1, ptr %13) #5
  %44 = load ptr, ptr %8, align 8
  %45 = getelementptr inbounds nuw %struct.GlobDirCallbackData, ptr %44, i32 0, i32 0
  %46 = load ptr, ptr %45, align 8
  %47 = load ptr, ptr %8, align 8
  %48 = getelementptr inbounds nuw %struct.GlobDirCallbackData, ptr %47, i32 0, i32 1
  %49 = load ptr, ptr %48, align 8
  %50 = load ptr, ptr %11, align 8
  %51 = icmp ne ptr %50, null
  br i1 %51, label %52, label %54

52:                                               ; preds = %43
  %53 = load ptr, ptr %11, align 8
  br label %56

54:                                               ; preds = %43
  %55 = load ptr, ptr %9, align 8
  br label %56

56:                                               ; preds = %54, %52
  %57 = phi ptr [ %53, %52 ], [ %55, %54 ]
  %58 = load ptr, ptr %8, align 8
  %59 = getelementptr inbounds nuw %struct.GlobDirCallbackData, ptr %58, i32 0, i32 7
  %60 = load i64, ptr %59, align 8
  %61 = getelementptr inbounds nuw i8, ptr %57, i64 %60
  %62 = call zeroext i1 %46(ptr noundef %49, ptr noundef %61, ptr noundef %12)
  %63 = zext i1 %62 to i8
  store i8 %63, ptr %13, align 1
  %64 = load ptr, ptr %11, align 8
  call void @SDL_free_REAL(ptr noundef %64)
  %65 = load i8, ptr %13, align 1, !range !3, !noundef !4
  %66 = trunc i8 %65 to i1
  br i1 %66, label %67, label %94

67:                                               ; preds = %56
  call void @llvm.lifetime.start.p0(i64 8, ptr %14) #5
  %68 = load ptr, ptr %9, align 8
  %69 = load ptr, ptr %8, align 8
  %70 = getelementptr inbounds nuw %struct.GlobDirCallbackData, ptr %69, i32 0, i32 7
  %71 = load i64, ptr %70, align 8
  %72 = getelementptr inbounds nuw i8, ptr %68, i64 %71
  store ptr %72, ptr %14, align 8
  call void @llvm.lifetime.start.p0(i64 8, ptr %15) #5
  %73 = load ptr, ptr %14, align 8
  %74 = call i64 @SDL_strlen_REAL(ptr noundef %73)
  %75 = add i64 %74, 1
  store i64 %75, ptr %15, align 8
  %76 = load ptr, ptr %8, align 8
  %77 = getelementptr inbounds nuw %struct.GlobDirCallbackData, ptr %76, i32 0, i32 8
  %78 = load ptr, ptr %77, align 8
  %79 = load ptr, ptr %14, align 8
  %80 = load i64, ptr %15, align 8
  %81 = call i64 @SDL_WriteIO_REAL(ptr noundef %78, ptr noundef %79, i64 noundef %80)
  %82 = load i64, ptr %15, align 8
  %83 = icmp ne i64 %81, %82
  br i1 %83, label %84, label %86

84:                                               ; preds = %67
  %85 = load ptr, ptr %9, align 8
  call void @SDL_free_REAL(ptr noundef %85)
  store i32 2, ptr %4, align 4
  store i32 1, ptr %10, align 4
  br label %91

86:                                               ; preds = %67
  %87 = load ptr, ptr %8, align 8
  %88 = getelementptr inbounds nuw %struct.GlobDirCallbackData, ptr %87, i32 0, i32 2
  %89 = load i32, ptr %88, align 8
  %90 = add nsw i32 %89, 1
  store i32 %90, ptr %88, align 8
  store i32 0, ptr %10, align 4
  br label %91

91:                                               ; preds = %86, %84
  call void @llvm.lifetime.end.p0(i64 8, ptr %15) #5
  call void @llvm.lifetime.end.p0(i64 8, ptr %14) #5
  %92 = load i32, ptr %10, align 4
  switch i32 %92, label %126 [
    i32 0, label %93
  ]

93:                                               ; preds = %91
  br label %94

94:                                               ; preds = %93, %56
  call void @llvm.lifetime.start.p0(i64 4, ptr %16) #5
  store i32 0, ptr %16, align 4
  %95 = load i8, ptr %12, align 1, !range !3, !noundef !4
  %96 = trunc i8 %95 to i1
  br i1 %96, label %97, label %123

97:                                               ; preds = %94
  call void @llvm.lifetime.start.p0(i64 40, ptr %17) #5
  %98 = load ptr, ptr %8, align 8
  %99 = getelementptr inbounds nuw %struct.GlobDirCallbackData, ptr %98, i32 0, i32 5
  %100 = load ptr, ptr %99, align 8
  %101 = load ptr, ptr %9, align 8
  %102 = load ptr, ptr %8, align 8
  %103 = getelementptr inbounds nuw %struct.GlobDirCallbackData, ptr %102, i32 0, i32 6
  %104 = load ptr, ptr %103, align 8
  %105 = call zeroext i1 %100(ptr noundef %101, ptr noundef %17, ptr noundef %104)
  br i1 %105, label %106, label %122

106:                                              ; preds = %97
  %107 = getelementptr inbounds nuw %struct.SDL_PathInfo, ptr %17, i32 0, i32 0
  %108 = load i32, ptr %107, align 8
  %109 = icmp eq i32 %108, 2
  br i1 %109, label %110, label %122

110:                                              ; preds = %106
  %111 = load ptr, ptr %8, align 8
  %112 = getelementptr inbounds nuw %struct.GlobDirCallbackData, ptr %111, i32 0, i32 4
  %113 = load ptr, ptr %112, align 8
  %114 = load ptr, ptr %9, align 8
  %115 = load ptr, ptr %8, align 8
  %116 = load ptr, ptr %8, align 8
  %117 = getelementptr inbounds nuw %struct.GlobDirCallbackData, ptr %116, i32 0, i32 6
  %118 = load ptr, ptr %117, align 8
  %119 = call zeroext i1 %113(ptr noundef %114, ptr noundef @GlobDirectoryCallback, ptr noundef %115, ptr noundef %118)
  br i1 %119, label %121, label %120

120:                                              ; preds = %110
  store i32 2, ptr %16, align 4
  br label %121

121:                                              ; preds = %120, %110
  br label %122

122:                                              ; preds = %121, %106, %97
  call void @llvm.lifetime.end.p0(i64 40, ptr %17) #5
  br label %123

123:                                              ; preds = %122, %94
  %124 = load ptr, ptr %9, align 8
  call void @SDL_free_REAL(ptr noundef %124)
  %125 = load i32, ptr %16, align 4
  store i32 %125, ptr %4, align 4
  store i32 1, ptr %10, align 4
  call void @llvm.lifetime.end.p0(i64 4, ptr %16) #5
  br label %126

126:                                              ; preds = %123, %91
  call void @llvm.lifetime.end.p0(i64 1, ptr %13) #5
  call void @llvm.lifetime.end.p0(i64 1, ptr %12) #5
  br label %127

127:                                              ; preds = %126, %41
  call void @llvm.lifetime.end.p0(i64 8, ptr %11) #5
  br label %128

128:                                              ; preds = %127, %29
  call void @llvm.lifetime.end.p0(i64 8, ptr %9) #5
  call void @llvm.lifetime.end.p0(i64 8, ptr %8) #5
  %129 = load i32, ptr %4, align 4
  ret i32 %129
}