; Function Attrs: nounwind uwtable
define internal range(i32 0, 3) i32 @GlobDirectoryCallback(ptr noundef %0, ptr noundef %1, ptr noundef %2) #0 {
  %4 = alloca ptr, align 8
  %5 = alloca i8, align 1
  %6 = alloca %struct.SDL_PathInfo, align 8
  call void @llvm.lifetime.start.p0(i64 8, ptr nonnull %4) #8
  store ptr null, ptr %4, align 8
  %7 = call i32 (ptr, ptr, ...) @SDL_asprintf_REAL(ptr noundef nonnull %4, ptr noundef nonnull @.str.6, ptr noundef %1, ptr noundef %2) #8
  %8 = icmp slt i32 %7, 0
  br i1 %8, label %59, label %9

9:                                                ; preds = %3
  %10 = getelementptr inbounds nuw i8, ptr %0, i64 20
  %11 = load i32, ptr %10, align 4
  %12 = and i32 %11, 1
  %.not = icmp eq i32 %12, 0
  br i1 %.not, label %16, label %13

13:                                               ; preds = %9
  %14 = load ptr, ptr %4, align 8
  %15 = call fastcc ptr @CaseFoldUtf8String(ptr noundef %14)
  %.not33 = icmp eq ptr %15, null
  br i1 %.not33, label %59, label %16

16:                                               ; preds = %13, %9
  %.031 = phi ptr [ %15, %13 ], [ null, %9 ]
  call void @llvm.lifetime.start.p0(i64 1, ptr nonnull %5) #8
  store i8 0, ptr %5, align 1
  %17 = load ptr, ptr %0, align 8
  %18 = getelementptr inbounds nuw i8, ptr %0, i64 8
  %19 = load ptr, ptr %18, align 8
  %.not34 = icmp eq ptr %.031, null
  %20 = load ptr, ptr %4, align 8
  %21 = select i1 %.not34, ptr %20, ptr %.031
  %22 = getelementptr inbounds nuw i8, ptr %0, i64 48
  %23 = load i64, ptr %22, align 8
  %24 = getelementptr inbounds nuw i8, ptr %21, i64 %23
  %25 = call zeroext i1 %17(ptr noundef %19, ptr noundef %24, ptr noundef nonnull %5) #8
  call void @SDL_free_REAL(ptr noundef %.031) #8
  br i1 %25, label %26, label %38

26:                                               ; preds = %16
  %27 = load ptr, ptr %4, align 8
  %28 = load i64, ptr %22, align 8
  %29 = getelementptr inbounds nuw i8, ptr %27, i64 %28
  %30 = call i64 @SDL_strlen_REAL(ptr noundef %29) #8
  %31 = add i64 %30, 1
  %32 = getelementptr inbounds nuw i8, ptr %0, i64 56
  %33 = load ptr, ptr %32, align 8
  %34 = call i64 @SDL_WriteIO_REAL(ptr noundef %33, ptr noundef %29, i64 noundef %31) #8
  %.not35 = icmp eq i64 %34, %31
  br i1 %.not35, label %.thread, label %57

.thread:                                          ; preds = %26
  %35 = getelementptr inbounds nuw i8, ptr %0, i64 16
  %36 = load i32, ptr %35, align 8
  %37 = add nsw i32 %36, 1
  store i32 %37, ptr %35, align 8
  br label %38

38:                                               ; preds = %.thread, %16
  %39 = load i8, ptr %5, align 1, !range !11, !noundef !12
  %40 = trunc nuw i8 %39 to i1
  br i1 %40, label %41, label %57

41:                                               ; preds = %38
  call void @llvm.lifetime.start.p0(i64 40, ptr nonnull %6) #8
  %42 = getelementptr inbounds nuw i8, ptr %0, i64 32
  %43 = load ptr, ptr %42, align 8
  %44 = load ptr, ptr %4, align 8
  %45 = getelementptr inbounds nuw i8, ptr %0, i64 40
  %46 = load ptr, ptr %45, align 8
  %47 = call zeroext i1 %43(ptr noundef %44, ptr noundef nonnull %6, ptr noundef %46) #8
  %48 = load i32, ptr %6, align 8
  %49 = icmp eq i32 %48, 2
  %or.cond = select i1 %47, i1 %49, i1 false
  br i1 %or.cond, label %50, label %56

50:                                               ; preds = %41
  %51 = getelementptr inbounds nuw i8, ptr %0, i64 24
  %52 = load ptr, ptr %51, align 8
  %53 = load ptr, ptr %4, align 8
  %54 = load ptr, ptr %45, align 8
  %55 = call zeroext i1 %52(ptr noundef %53, ptr noundef nonnull @GlobDirectoryCallback, ptr noundef nonnull %0, ptr noundef %54) #8
  %spec.select = select i1 %55, i32 0, i32 2
  br label %56

56:                                               ; preds = %50, %41
  %.1 = phi i32 [ 0, %41 ], [ %spec.select, %50 ]
  call void @llvm.lifetime.end.p0(i64 40, ptr nonnull %6) #8
  br label %57

57:                                               ; preds = %38, %56, %26
  %.3 = phi i32 [ 2, %26 ], [ %.1, %56 ], [ 0, %38 ]
  %58 = load ptr, ptr %4, align 8
  call void @SDL_free_REAL(ptr noundef %58) #8
  call void @llvm.lifetime.end.p0(i64 1, ptr nonnull %5) #8
  br label %59

59:                                               ; preds = %57, %13, %3
  %.028 = phi i32 [ 2, %3 ], [ %.3, %57 ], [ 2, %13 ]
  call void @llvm.lifetime.end.p0(i64 8, ptr nonnull %4) #8
  ret i32 %.028
}